target datalayout = "e-m:e-p270:32:32-p271:32:32-p272:64:64-i64:64-i128:128-f80:128-n8:16:32:64-S128"
target triple = "x86_64-pc-linux-gnu"

%"struct.G1HeapTransition::Data" = type { i64, i64, i64, i64, %class.MetaspaceCombinedStats, ptr, ptr }
%class.MetaspaceCombinedStats = type { %class.MetaspaceStats, %class.MetaspaceStats, %class.MetaspaceStats }
%class.MetaspaceStats = type { i64, i64, i64 }

; Function Attrs: mustprogress nounwind uwtable
define hidden void @_ZN16G1HeapTransition4DataD2Ev(ptr noundef nonnull align 8 dereferenceable(120) %0) unnamed_addr #1 align 2 {
  %2 = alloca ptr, align 8
  store ptr %0, ptr %2, align 8
  %3 = load ptr, ptr %2, align 8
  %4 = getelementptr inbounds %"struct.G1HeapTransition::Data", ptr %3, i32 0, i32 5
  %5 = load ptr, ptr %4, align 8
  call void @_Z8FreeHeapPv(ptr noundef %5)
  %6 = getelementptr inbounds %"struct.G1HeapTransition::Data", ptr %3, i32 0, i32 6
  %7 = load ptr, ptr %6, align 8
  call void @_Z8FreeHeapPv(ptr noundef %7)
  ret void
}